ccopy_reg
_reconstructor
p0
(cnltk.classify.naivebayes
NaiveBayesClassifier
p1
c__builtin__
object
p2
Ntp3
Rp4
(dp5
S'_labels'
p6
(lp7
S'1'
p8
asS'_feature_probdist'
p9
(dp10
(g8
Vwill
p11
tp12
g0
(cnltk.probability
ELEProbDist
p13
g2
Ntp14
Rp15
(dp16
S'_gamma'
p17
F0.5
sS'_N'
p18
I100
sS'_freqdist'
p19
g0
(cnltk.probability
FreqDist
p20
c__builtin__
dict
p21
(dp22
I01
I71
sNI29
stp23
Rp24
(dp25
g18
I100
sS'_max_cache'
p26
NsS'_item_cache'
p27
NsS'_Nr_cache'
p28
NsbsS'_bins'
p29
I2
sS'_divisor'
p30
F101.0
sbs(g8
Vchelle_skins_
p31
tp32
g0
(g13
g2
Ntp33
Rp34
(dp35
g17
F0.5
sg18
I100
sg19
g0
(g20
g21
(dp36
I01
I1
sNI99
stp37
Rp38
(dp39
g18
I100
sg26
Nsg27
Nsg28
Nsbsg29
I2
sg30
F101.0
sbs(g8
Vstarts
p40
tp41
g0
(g13
g2
Ntp42
Rp43
(dp44
g17
F0.5
sg18
I100
sg19
g0
(g20
g21
(dp45
I01
I17
sNI83
stp46
Rp47
(dp48
g18
I100
sg26
Nsg27
Nsg28
Nsbsg29
I2
sg30
F101.0
sbs(g8
Vhope
p49
tp50
g0
(g13
g2
Ntp51
Rp52
(dp53
g17
F0.5
sg18
I100
sg19
g0
(g20
g21
(dp54
I01
I1
sNI99
stp55
Rp56
(dp57
g18
I100
sg26
Nsg27
Nsg28
Nsbsg29
I2
sg30
F101.0
sbs(g8
Vshewantsthed
p58
tp59
g0
(g13
g2
Ntp60
Rp61
(dp62
g17
F0.5
sg18
I100
sg19
g0
(g20
g21
(dp63
I01
I1
sNI99
stp64
Rp65
(dp66
g18
I100
sg26
Nsg27
Nsg28
Nsbsg29
I2
sg30
F101.0
sbs(g8
Vlabel
p67
tp68
g0
(g13
g2
Ntp69
Rp70
(dp71
g17
F0.5
sg18
I100
sg19
g0
(g20
g21
(dp72
I01
I1
sNI99
stp73
Rp74
(dp75
g18
I100
sg26
Nsg27
Nsg28
Nsbsg29
I2
sg30
F101.0
sbs(g8
Vhow
p76
tp77
g0
(g13
g2
Ntp78
Rp79
(dp80
g17
F0.5
sg18
I100
sg19
g0
(g20
g21
(dp81
I01
I1
sNI99
stp82
Rp83
(dp84
g18
I100
sg26
Nsg27
Nsg28
Nsbsg29
I2
sg30
F101.0
sbs(g8
Vkiss
p85
tp86
g0
(g13
g2
Ntp87
Rp88
(dp89
g17
F0.5
sg18
I100
sg19
g0
(g20
g21
(dp90
I01
I1
sNI99
stp91
Rp92
(dp93
g18
I100
sg26
Nsg27
Nsg28
Nsbsg29
I2
sg30
F101.0
sbs(g8
Vstill
p94
tp95
g0
(g13
g2
Ntp96
Rp97
(dp98
g17
F0.5
sg18
I100
sg19
g0
(g20
g21
(dp99
I01
I1
sNI99
stp100
Rp101
(dp102
g18
I100
sg26
Nsg27
Nsg28
Nsbsg29
I2
sg30
F101.0
sbs(g8
Vthought
p103
tp104
g0
(g13
g2
Ntp105
Rp106
(dp107
g17
F0.5
sg18
I100
sg19
g0
(g20
g21
(dp108
I01
I1
sNI99
stp109
Rp110
(dp111
g18
I100
sg26
Nsg27
Nsg28
Nsbsg29
I2
sg30
F101.0
sbs(g8
Vshe
p112
tp113
g0
(g13
g2
Ntp114
Rp115
(dp116
g17
F0.5
sg18
I100
sg19
g0
(g20
g21
(dp117
I01
I15
sNI85
stp118
Rp119
(dp120
g18
I100
sg26
Nsg27
Nsg28
Nsbsg29
I2
sg30
F101.0
sbs(g8
Vyou
p121
tp122
g0
(g13
g2
Ntp123
Rp124
(dp125
g17
F0.5
sg18
I100
sg19
g0
(g20
g21
(dp126
I01
I4
sNI96
stp127
Rp128
(dp129
g18
I100
sg26
Nsg27
Nsg28
Nsbsg29
I2
sg30
F101.0
sbs(g8
Valert
p130
tp131
g0
(g13
g2
Ntp132
Rp133
(dp134
g17
F0.5
sg18
I100
sg19
g0
(g20
g21
(dp135
I01
I1
sNI99
stp136
Rp137
(dp138
g18
I100
sg26
Nsg27
Nsg28
Nsbsg29
I2
sg30
F101.0
sbs(g8
Vsleep
p139
tp140
g0
(g13
g2
Ntp141
Rp142
(dp143
g17
F0.5
sg18
I100
sg19
g0
(g20
g21
(dp144
I01
I1
sNI99
stp145
Rp146
(dp147
g18
I100
sg26
Nsg27
Nsg28
Nsbsg29
I2
sg30
F101.0
sbs(g8
Vamp
p148
tp149
g0
(g13
g2
Ntp150
Rp151
(dp152
g17
F0.5
sg18
I100
sg19
g0
(g20
g21
(dp153
I01
I1
sNI99
stp154
Rp155
(dp156
g18
I100
sg26
Nsg27
Nsg28
Nsbsg29
I2
sg30
F101.0
sbs(g8
Vunusuaifacts
p157
tp158
g0
(g13
g2
Ntp159
Rp160
(dp161
g17
F0.5
sg18
I100
sg19
g0
(g20
g21
(dp162
I01
I69
sNI31
stp163
Rp164
(dp165
g18
I100
sg26
Nsg27
Nsg28
Nsbsg29
I2
sg30
F101.0
sbs(g8
Vwith
p166
tp167
g0
(g13
g2
Ntp168
Rp169
(dp170
g17
F0.5
sg18
I100
sg19
g0
(g20
g21
(dp171
I01
I18
sNI82
stp172
Rp173
(dp174
g18
I100
sg26
Nsg27
Nsg28
Nsbsg29
I2
sg30
F101.0
sbs(g8
Vshecravingthatd
p175
tp176
g0
(g13
g2
Ntp177
Rp178
(dp179
g17
F0.5
sg18
I100
sg19
g0
(g20
g21
(dp180
I01
I2
sNI98
stp181
Rp182
(dp183
g18
I100
sg26
Nsg27
Nsg28
Nsbsg29
I2
sg30
F101.0
sbs(g8
Vshewantyourdick
p184
tp185
g0
(g13
g2
Ntp186
Rp187
(dp188
g17
F0.5
sg18
I100
sg19
g0
(g20
g21
(dp189
I01
I2
sNI98
stp190
Rp191
(dp192
g18
I100
sg26
Nsg27
Nsg28
Nsbsg29
I2
sg30
F101.0
sbs(g8
Vspell
p193
tp194
g0
(g13
g2
Ntp195
Rp196
(dp197
g17
F0.5
sg18
I100
sg19
g0
(g20
g21
(dp198
I01
I1
sNI99
stp199
Rp200
(dp201
g18
I100
sg26
Nsg27
Nsg28
Nsbsg29
I2
sg30
F101.0
sbs(g8
Vrezkyimmalasari
p202
tp203
g0
(g13
g2
Ntp204
Rp205
(dp206
g17
F0.5
sg18
I100
sg19
g0
(g20
g21
(dp207
I01
I1
sNI99
stp208
Rp209
(dp210
g18
I100
sg26
Nsg27
Nsg28
Nsbsg29
I2
sg30
F101.0
sbs(g8
Vmore
p211
tp212
g0
(g13
g2
Ntp213
Rp214
(dp215
g17
F0.5
sg18
I100
sg19
g0
(g20
g21
(dp216
I01
I1
sNI99
stp217
Rp218
(dp219
g18
I100
sg26
Nsg27
Nsg28
Nsbsg29
I2
sg30
F101.0
sbs(g8
Vhttp
p220
tp221
g0
(g13
g2
Ntp222
Rp223
(dp224
g17
F0.5
sg18
I100
sg19
g0
(g20
g21
(dp225
I01
I2
sNI98
stp226
Rp227
(dp228
g18
I100
sg26
Nsg27
Nsg28
Nsbsg29
I2
sg30
F101.0
sbs(g8
Vshedreamsthed
p229
tp230
g0
(g13
g2
Ntp231
Rp232
(dp233
g17
F0.5
sg18
I100
sg19
g0
(g20
g21
(dp234
I01
I4
sNI96
stp235
Rp236
(dp237
g18
I100
sg26
Nsg27
Nsg28
Nsbsg29
I2
sg30
F101.0
sbs(g8
Vliked
p238
tp239
g0
(g13
g2
Ntp240
Rp241
(dp242
g17
F0.5
sg18
I100
sg19
g0
(g20
g21
(dp243
I01
I1
sNI99
stp244
Rp245
(dp246
g18
I100
sg26
Nsg27
Nsg28
Nsbsg29
I2
sg30
F101.0
sbs(g8
Va
p247
tp248
g0
(g13
g2
Ntp249
Rp250
(dp251
g17
F0.5
sg18
I100
sg19
g0
(g20
g21
(dp252
I01
I100
stp253
Rp254
(dp255
g18
I100
sg26
Nsg27
Nsg28
Nsbsg29
I2
sg30
F101.0
sbs(g8
Vfine
p256
tp257
g0
(g13
g2
Ntp258
Rp259
(dp260
g17
F0.5
sg18
I100
sg19
g0
(g20
g21
(dp261
I01
I1
sNI99
stp262
Rp263
(dp264
g18
I100
sg26
Nsg27
Nsg28
Nsbsg29
I2
sg30
F101.0
sbs(g8
Vof
p265
tp266
g0
(g13
g2
Ntp267
Rp268
(dp269
g17
F0.5
sg18
I100
sg19
g0
(g20
g21
(dp270
I01
I71
sNI29
stp271
Rp272
(dp273
g18
I100
sg26
Nsg27
Nsg28
Nsbsg29
I2
sg30
F101.0
sbs(g8
Vreading
p274
tp275
g0
(g13
g2
Ntp276
Rp277
(dp278
g17
F0.5
sg18
I100
sg19
g0
(g20
g21
(dp279
I01
I71
sNI29
stp280
Rp281
(dp282
g18
I100
sg26
Nsg27
Nsg28
Nsbsg29
I2
sg30
F101.0
sbs(g8
Vand
p283
tp284
g0
(g13
g2
Ntp285
Rp286
(dp287
g17
F0.5
sg18
I100
sg19
g0
(g20
g21
(dp288
I01
I1
sNI99
stp289
Rp290
(dp291
g18
I100
sg26
Nsg27
Nsg28
Nsbsg29
I2
sg30
F101.0
sbs(g8
Vnames
p292
tp293
g0
(g13
g2
Ntp294
Rp295
(dp296
g17
F0.5
sg18
I100
sg19
g0
(g20
g21
(dp297
I01
I1
sNI99
stp298
Rp299
(dp300
g18
I100
sg26
Nsg27
Nsg28
Nsbsg29
I2
sg30
F101.0
sbs(g8
Vred
p301
tp302
g0
(g13
g2
Ntp303
Rp304
(dp305
g17
F0.5
sg18
I100
sg19
g0
(g20
g21
(dp306
I01
I1
sNI99
stp307
Rp308
(dp309
g18
I100
sg26
Nsg27
Nsg28
Nsbsg29
I2
sg30
F101.0
sbs(g8
Vare
p310
tp311
g0
(g13
g2
Ntp312
Rp313
(dp314
g17
F0.5
sg18
I100
sg19
g0
(g20
g21
(dp315
I01
I1
sNI99
stp316
Rp317
(dp318
g18
I100
sg26
Nsg27
Nsg28
Nsbsg29
I2
sg30
F101.0
sbs(g8
V_______l
p319
tp320
g0
(g13
g2
Ntp321
Rp322
(dp323
g17
F0.5
sg18
I100
sg19
g0
(g20
g21
(dp324
I01
I1
sNI99
stp325
Rp326
(dp327
g18
I100
sg26
Nsg27
Nsg28
Nsbsg29
I2
sg30
F101.0
sbs(g8
Vyoung
p328
tp329
g0
(g13
g2
Ntp330
Rp331
(dp332
g17
F0.5
sg18
I100
sg19
g0
(g20
g21
(dp333
I01
I1
sNI99
stp334
Rp335
(dp336
g18
I100
sg26
Nsg27
Nsg28
Nsbsg29
I2
sg30
F101.0
sbs(g8
Vwants
p337
tp338
g0
(g13
g2
Ntp339
Rp340
(dp341
g17
F0.5
sg18
I100
sg19
g0
(g20
g21
(dp342
I01
I15
sNI85
stp343
Rp344
(dp345
g18
I100
sg26
Nsg27
Nsg28
Nsbsg29
I2
sg30
F101.0
sbs(g8
Vpeople
p346
tp347
g0
(g13
g2
Ntp348
Rp349
(dp350
g17
F0.5
sg18
I100
sg19
g0
(g20
g21
(dp351
I01
I71
sNI29
stp352
Rp353
(dp354
g18
I100
sg26
Nsg27
Nsg28
Nsbsg29
I2
sg30
F101.0
sbs(g8
Vzhcrsjgb
p355
tp356
g0
(g13
g2
Ntp357
Rp358
(dp359
g17
F0.5
sg18
I100
sg19
g0
(g20
g21
(dp360
I01
I1
sNI99
stp361
Rp362
(dp363
g18
I100
sg26
Nsg27
Nsg28
Nsbsg29
I2
sg30
F101.0
sbs(g8
Vher
p364
tp365
g0
(g13
g2
Ntp366
Rp367
(dp368
g17
F0.5
sg18
I100
sg19
g0
(g20
g21
(dp369
I01
I16
sNI84
stp370
Rp371
(dp372
g18
I100
sg26
Nsg27
Nsg28
Nsbsg29
I2
sg30
F101.0
sbs(g8
Vis
p373
tp374
g0
(g13
g2
Ntp375
Rp376
(dp377
g17
F0.5
sg18
I100
sg19
g0
(g20
g21
(dp378
I01
I1
sNI99
stp379
Rp380
(dp381
g18
I100
sg26
Nsg27
Nsg28
Nsbsg29
I2
sg30
F101.0
sbs(g8
Vceramics
p382
tp383
g0
(g13
g2
Ntp384
Rp385
(dp386
g17
F0.5
sg18
I100
sg19
g0
(g20
g21
(dp387
I01
I1
sNI99
stp388
Rp389
(dp390
g18
I100
sg26
Nsg27
Nsg28
Nsbsg29
I2
sg30
F101.0
sbs(g8
Vfind
p391
tp392
g0
(g13
g2
Ntp393
Rp394
(dp395
g17
F0.5
sg18
I100
sg19
g0
(g20
g21
(dp396
I01
I71
sNI29
stp397
Rp398
(dp399
g18
I100
sg26
Nsg27
Nsg28
Nsbsg29
I2
sg30
F101.0
sbs(g8
Vlips
p400
tp401
g0
(g13
g2
Ntp402
Rp403
(dp404
g17
F0.5
sg18
I100
sg19
g0
(g20
g21
(dp405
I01
I1
sNI99
stp406
Rp407
(dp408
g18
I100
sg26
Nsg27
Nsg28
Nsbsg29
I2
sg30
F101.0
sbs(g8
Vyour
p409
tp410
g0
(g13
g2
Ntp411
Rp412
(dp413
g17
F0.5
sg18
I100
sg19
g0
(g20
g21
(dp414
I01
I1
sNI99
stp415
Rp416
(dp417
g18
I100
sg26
Nsg27
Nsg28
Nsbsg29
I2
sg30
F101.0
sbs(g8
Vamerican
p418
tp419
g0
(g13
g2
Ntp420
Rp421
(dp422
g17
F0.5
sg18
I100
sg19
g0
(g20
g21
(dp423
I01
I1
sNI99
stp424
Rp425
(dp426
g18
I100
sg26
Nsg27
Nsg28
Nsbsg29
I2
sg30
F101.0
sbs(g8
Vfeatured
p427
tp428
g0
(g13
g2
Ntp429
Rp430
(dp431
g17
F0.5
sg18
I100
sg19
g0
(g20
g21
(dp432
I01
I1
sNI99
stp433
Rp434
(dp435
g18
I100
sg26
Nsg27
Nsg28
Nsbsg29
I2
sg30
F101.0
sbs(g8
Vgoodlow
p436
tp437
g0
(g13
g2
Ntp438
Rp439
(dp440
g17
F0.5
sg18
I100
sg19
g0
(g20
g21
(dp441
I01
I1
sNI99
stp442
Rp443
(dp444
g18
I100
sg26
Nsg27
Nsg28
Nsbsg29
I2
sg30
F101.0
sbs(g8
Vhave
p445
tp446
g0
(g13
g2
Ntp447
Rp448
(dp449
g17
F0.5
sg18
I100
sg19
g0
(g20
g21
(dp450
I01
I1
sNI99
stp451
Rp452
(dp453
g18
I100
sg26
Nsg27
Nsg28
Nsbsg29
I2
sg30
F101.0
sbs(g8
Vcareful
p454
tp455
g0
(g13
g2
Ntp456
Rp457
(dp458
g17
F0.5
sg18
I100
sg19
g0
(g20
g21
(dp459
I01
I1
sNI99
stp460
Rp461
(dp462
g18
I100
sg26
Nsg27
Nsg28
Nsbsg29
I2
sg30
F101.0
sbs(g8
Vbegins
p463
tp464
g0
(g13
g2
Ntp465
Rp466
(dp467
g17
F0.5
sg18
I100
sg19
g0
(g20
g21
(dp468
I01
I1
sNI99
stp469
Rp470
(dp471
g18
I100
sg26
Nsg27
Nsg28
Nsbsg29
I2
sg30
F101.0
sbs(g8
Vsheewantsyourd
p472
tp473
g0
(g13
g2
Ntp474
Rp475
(dp476
g17
F0.5
sg18
I100
sg19
g0
(g20
g21
(dp477
I01
I3
sNI97
stp478
Rp479
(dp480
g18
I100
sg26
Nsg27
Nsg28
Nsbsg29
I2
sg30
F101.0
sbs(g8
Vthe
p481
tp482
g0
(g13
g2
Ntp483
Rp484
(dp485
g17
F0.5
sg18
I100
sg19
g0
(g20
g21
(dp486
I01
I88
sNI12
stp487
Rp488
(dp489
g18
I100
sg26
Nsg27
Nsg28
Nsbsg29
I2
sg30
F101.0
sbs(g8
Vawwww
p490
tp491
g0
(g13
g2
Ntp492
Rp493
(dp494
g17
F0.5
sg18
I100
sg19
g0
(g20
g21
(dp495
I01
I1
sNI99
stp496
Rp497
(dp498
g18
I100
sg26
Nsg27
Nsg28
Nsbsg29
I2
sg30
F101.0
sbs(g8
Vbiagisan
p499
tp500
g0
(g13
g2
Ntp501
Rp502
(dp503
g17
F0.5
sg18
I100
sg19
g0
(g20
g21
(dp504
I01
I1
sNI99
stp505
Rp506
(dp507
g18
I100
sg26
Nsg27
Nsg28
Nsbsg29
I2
sg30
F101.0
sbs(g8
Vd__t
p508
tp509
g0
(g13
g2
Ntp510
Rp511
(dp512
g17
F0.5
sg18
I100
sg19
g0
(g20
g21
(dp513
I01
I1
sNI99
stp514
Rp515
(dp516
g18
I100
sg26
Nsg27
Nsg28
Nsbsg29
I2
sg30
F101.0
sbs(g8
Vuanu
p517
tp518
g0
(g13
g2
Ntp519
Rp520
(dp521
g17
F0.5
sg18
I100
sg19
g0
(g20
g21
(dp522
I01
I1
sNI99
stp523
Rp524
(dp525
g18
I100
sg26
Nsg27
Nsg28
Nsbsg29
I2
sg30
F101.0
sbs(g8
Vs
p526
tp527
g0
(g13
g2
Ntp528
Rp529
(dp530
g17
F0.5
sg18
I100
sg19
g0
(g20
g21
(dp531
I01
I96
sNI4
stp532
Rp533
(dp534
g18
I100
sg26
Nsg27
Nsg28
Nsbsg29
I2
sg30
F101.0
sbs(g8
Vto
p535
tp536
g0
(g13
g2
Ntp537
Rp538
(dp539
g17
F0.5
sg18
I100
sg19
g0
(g20
g21
(dp540
I01
I1
sNI99
stp541
Rp542
(dp543
g18
I100
sg26
Nsg27
Nsg28
Nsbsg29
I2
sg30
F101.0
sbs(g8
Vname
p544
tp545
g0
(g13
g2
Ntp546
Rp547
(dp548
g17
F0.5
sg18
I100
sg19
g0
(g20
g21
(dp549
I01
I17
sNI83
stp550
Rp551
(dp552
g18
I100
sg26
Nsg27
Nsg28
Nsbsg29
I2
sg30
F101.0
sbs(g8
Vself
p553
tp554
g0
(g13
g2
Ntp555
Rp556
(dp557
g17
F0.5
sg18
I100
sg19
g0
(g20
g21
(dp558
I01
I1
sNI99
stp559
Rp560
(dp561
g18
I100
sg26
Nsg27
Nsg28
Nsbsg29
I2
sg30
F101.0
sbs(g8
Vmistake
p562
tp563
g0
(g13
g2
Ntp564
Rp565
(dp566
g17
F0.5
sg18
I100
sg19
g0
(g20
g21
(dp567
I01
I71
sNI29
stp568
Rp569
(dp570
g18
I100
sg26
Nsg27
Nsg28
Nsbsg29
I2
sg30
F101.0
sbs(g8
Vchiizukeiki
p571
tp572
g0
(g13
g2
Ntp573
Rp574
(dp575
g17
F0.5
sg18
I100
sg19
g0
(g20
g21
(dp576
I01
I1
sNI99
stp577
Rp578
(dp579
g18
I100
sg26
Nsg27
Nsg28
Nsbsg29
I2
sg30
F101.0
sbs(g8
Vcross
p580
tp581
g0
(g13
g2
Ntp582
Rp583
(dp584
g17
F0.5
sg18
I100
sg19
g0
(g20
g21
(dp585
I01
I1
sNI99
stp586
Rp587
(dp588
g18
I100
sg26
Nsg27
Nsg28
Nsbsg29
I2
sg30
F101.0
sbs(g8
Vthis
p589
tp590
g0
(g13
g2
Ntp591
Rp592
(dp593
g17
F0.5
sg18
I100
sg19
g0
(g20
g21
(dp594
I01
I71
sNI29
stp595
Rp596
(dp597
g18
I100
sg26
Nsg27
Nsg28
Nsbsg29
I2
sg30
F101.0
sbs(g8
Vshewanttheedick
p598
tp599
g0
(g13
g2
Ntp600
Rp601
(dp602
g17
F0.5
sg18
I100
sg19
g0
(g20
g21
(dp603
I01
I1
sNI99
stp604
Rp605
(dp606
g18
I100
sg26
Nsg27
Nsg28
Nsbsg29
I2
sg30
F101.0
sbs(g8
Vin
p607
tp608
g0
(g13
g2
Ntp609
Rp610
(dp611
g17
F0.5
sg18
I100
sg19
g0
(g20
g21
(dp612
I01
I71
sNI29
stp613
Rp614
(dp615
g18
I100
sg26
Nsg27
Nsg28
Nsbsg29
I2
sg30
F101.0
sbs(g8
Vlady
p616
tp617
g0
(g13
g2
Ntp618
Rp619
(dp620
g17
F0.5
sg18
I100
sg19
g0
(g20
g21
(dp621
I01
I1
sNI99
stp622
Rp623
(dp624
g18
I100
sg26
Nsg27
Nsg28
Nsbsg29
I2
sg30
F101.0
sbs(g8
Varticles
p625
tp626
g0
(g13
g2
Ntp627
Rp628
(dp629
g17
F0.5
sg18
I100
sg19
g0
(g20
g21
(dp630
I01
I1
sNI99
stp631
Rp632
(dp633
g18
I100
sg26
Nsg27
Nsg28
Nsbsg29
I2
sg30
F101.0
sbs(g8
V57sfeugf
p634
tp635
g0
(g13
g2
Ntp636
Rp637
(dp638
g17
F0.5
sg18
I100
sg19
g0
(g20
g21
(dp639
I01
I1
sNI99
stp640
Rp641
(dp642
g18
I100
sg26
Nsg27
Nsg28
Nsbsg29
I2
sg30
F101.0
sbs(g8
Vpottery
p643
tp644
g0
(g13
g2
Ntp645
Rp646
(dp647
g17
F0.5
sg18
I100
sg19
g0
(g20
g21
(dp648
I01
I1
sNI99
stp649
Rp650
(dp651
g18
I100
sg26
Nsg27
Nsg28
Nsbsg29
I2
sg30
F101.0
sbs(g8
Varrogant
p652
tp653
g0
(g13
g2
Ntp654
Rp655
(dp656
g17
F0.5
sg18
I100
sg19
g0
(g20
g21
(dp657
I01
I1
sNI99
stp658
Rp659
(dp660
g18
I100
sg26
Nsg27
Nsg28
Nsbsg29
I2
sg30
F101.0
sbs(g8
Vsheswantsthed
p661
tp662
g0
(g13
g2
Ntp663
Rp664
(dp665
g17
F0.5
sg18
I100
sg19
g0
(g20
g21
(dp666
I01
I3
sNI97
stp667
Rp668
(dp669
g18
I100
sg26
Nsg27
Nsg28
Nsbsg29
I2
sg30
F101.0
sbs(g8
Vjamie
p670
tp671
g0
(g13
g2
Ntp672
Rp673
(dp674
g17
F0.5
sg18
I100
sg19
g0
(g20
g21
(dp675
I01
I1
sNI99
stp676
Rp677
(dp678
g18
I100
sg26
Nsg27
Nsg28
Nsbsg29
I2
sg30
F101.0
sbs(g8
Vsmile
p679
tp680
g0
(g13
g2
Ntp681
Rp682
(dp683
g17
F0.5
sg18
I100
sg19
g0
(g20
g21
(dp684
I01
I1
sNI99
stp685
Rp686
(dp687
g18
I100
sg26
Nsg27
Nsg28
Nsbsg29
I2
sg30
F101.0
sbs(g8
Vmindblowlng
p688
tp689
g0
(g13
g2
Ntp690
Rp691
(dp692
g17
F0.5
sg18
I100
sg19
g0
(g20
g21
(dp693
I01
I2
sNI98
stp694
Rp695
(dp696
g18
I100
sg26
Nsg27
Nsg28
Nsbsg29
I2
sg30
F101.0
sbs(g8
Vnot
p697
tp698
g0
(g13
g2
Ntp699
Rp700
(dp701
g17
F0.5
sg18
I100
sg19
g0
(g20
g21
(dp702
I01
I71
sNI29
stp703
Rp704
(dp705
g18
I100
sg26
Nsg27
Nsg28
Nsbsg29
I2
sg30
F101.0
sbs(g8
Vever
p706
tp707
g0
(g13
g2
Ntp708
Rp709
(dp710
g17
F0.5
sg18
I100
sg19
g0
(g20
g21
(dp711
I01
I1
sNI99
stp712
Rp713
(dp714
g18
I100
sg26
Nsg27
Nsg28
Nsbsg29
I2
sg30
F101.0
sbs(g8
Vahu
p715
tp716
g0
(g13
g2
Ntp717
Rp718
(dp719
g17
F0.5
sg18
I100
sg19
g0
(g20
g21
(dp720
I01
I1
sNI99
stp721
Rp722
(dp723
g18
I100
sg26
Nsg27
Nsg28
Nsbsg29
I2
sg30
F101.0
sbssS'_label_probdist'
p724
g0
(g13
g2
Ntp725
Rp726
(dp727
g17
F0.5
sg18
I100
sg19
g0
(g20
g21
(dp728
g8
I100
stp729
Rp730
(dp731
g18
I100
sg26
Nsg27
(lp732
(g8
I100
tp733
asg28
Nsbsg29
I1
sg30
F100.5
sbsb.